ccopy_reg
_reconstructor
p1
(csklearn.linear_model.base
LinearRegression
p2
c__builtin__
object
p3
NtRp4
(dp5
S'normalize'
p6
I01
sS'n_jobs'
p7
I-1
sS'rank_'
p8
I2
sS'fit_intercept'
p9
I01
sS'_residues'
p10
cnumpy.core.multiarray
_reconstruct
p11
(cnumpy
ndarray
p12
(I0
tS'b'
tRp13
(I1
(I0
tcnumpy
dtype
p14
(S'f8'
I0
I1
tRp15
(I3
S'<'
NNNI-1
I-1
I0
tbI00
S''
tbsS'singular_'
p16
g11
(g12
(I0
tS'b'
tRp17
(I1
(I3
tg15
I00
S'4c\xbe\x8a\x8c\xc3\xf9?4\x8e\x06\xed\xffj\xe4?S\xeeB\x05\x90\x1c\x86<'
tbsS'coef_'
p18
g11
(g12
(I0
tS'b'
tRp19
(I1
(I3
tg15
I00
S'\x1b\x14\xb8\xbca\xd3\x17@\xf2\x16eY\x1cq#\xc0\xf2\x16eY\x1cq#@'
tbsS'_sklearn_version'
p20
S'0.18.1'
p21
sS'copy_X'
p22
I01
sS'intercept_'
p23
cnumpy.core.multiarray
scalar
p24
(g15
S'\xbd\x8f&\xe5U<m\xc0'
tRp25
sb.